target datalayout = "e-m:e-p270:32:32-p271:32:32-p272:64:64-i64:64-i128:128-f80:128-n8:16:32:64-S128"
target triple = "x86_64-pc-linux-gnu"

%"class.std::__cxx11::basic_string" = type { %"struct.std::__cxx11::basic_string<char>::_Alloc_hider", i64, %union.anon }
%"struct.std::__cxx11::basic_string<char>::_Alloc_hider" = type { ptr }
%union.anon = type { i64, [8 x i8] }
%"class.absl::lts_20240722::Status" = type { i64 }
%"class.grpc_core::Orphanable" = type { ptr }
%"class.grpc_core::RefCount" = type { %"struct.std::atomic" }
%"struct.std::atomic" = type { %"struct.std::__atomic_base" }
%"struct.std::__atomic_base" = type { i64 }
%"class.grpc_core::EndpointList" = type { %"class.grpc_core::InternallyRefCounted.110", %"class.grpc_core::RefCountedPtr.111", %"class.std::__cxx11::basic_string", ptr, %"class.std::vector.112", i64 }
%"class.grpc_core::InternallyRefCounted.110" = type { %"class.grpc_core::Orphanable", %"class.grpc_core::RefCount" }
%"class.grpc_core::RefCountedPtr.111" = type { ptr }
%"class.std::vector.112" = type { %"struct.std::_Vector_base.113" }
%"struct.std::_Vector_base.113" = type { %"struct.std::_Vector_base<std::unique_ptr<grpc_core::EndpointList::Endpoint, grpc_core::OrphanableDelete>, std::allocator<std::unique_ptr<grpc_core::EndpointList::Endpoint, grpc_core::OrphanableDelete>>>::_Vector_impl" }
%"struct.std::_Vector_base<std::unique_ptr<grpc_core::EndpointList::Endpoint, grpc_core::OrphanableDelete>, std::allocator<std::unique_ptr<grpc_core::EndpointList::Endpoint, grpc_core::OrphanableDelete>>>::_Vector_impl" = type { %"struct.std::_Vector_base<std::unique_ptr<grpc_core::EndpointList::Endpoint, grpc_core::OrphanableDelete>, std::allocator<std::unique_ptr<grpc_core::EndpointList::Endpoint, grpc_core::OrphanableDelete>>>::_Vector_impl_data" }
%"struct.std::_Vector_base<std::unique_ptr<grpc_core::EndpointList::Endpoint, grpc_core::OrphanableDelete>, std::allocator<std::unique_ptr<grpc_core::EndpointList::Endpoint, grpc_core::OrphanableDelete>>>::_Vector_impl_data" = type { ptr, ptr, ptr }
%"class.grpc_core::(anonymous namespace)::RoundRobin::RoundRobinEndpointList" = type { %"class.grpc_core::EndpointList", i64, i64, i64, %"class.absl::lts_20240722::Status" }

; Function Attrs: inlinehint mustprogress nounwind uwtable
define linkonce_odr noundef ptr @_ZN4absl12lts_202407226Status12RepToPointerEm(i64 noundef %0) #11 comdat align 2 {
  %2 = alloca i64, align 8
  store i64 %0, ptr %2, align 8, !tbaa !52
  %3 = load i64, ptr %2, align 8, !tbaa !52
  %4 = inttoptr i64 %3 to ptr
  ret ptr %4
}

; Function Attrs: mustprogress nounwind uwtable
define linkonce_odr noundef zeroext i1 @_ZN4absl12lts_202407226Status9IsInlinedEm(i64 noundef %0) #5 comdat align 2 {
  %2 = alloca i64, align 8
  store i64 %0, ptr %2, align 8, !tbaa !52
  %3 = load i64, ptr %2, align 8, !tbaa !52
  %4 = and i64 %3, 1
  %5 = icmp ne i64 %4, 0
  ret i1 %5
}

; Function Attrs: inlinehint mustprogress uwtable
define linkonce_odr void @_ZN4absl12lts_202407226Status5UnrefEm(i64 noundef %0) #7 comdat align 2 {
  %2 = alloca i64, align 8
  store i64 %0, ptr %2, align 8, !tbaa !52
  %3 = load i64, ptr %2, align 8, !tbaa !52
  %4 = call noundef zeroext i1 @_ZN4absl12lts_202407226Status9IsInlinedEm(i64 noundef %3)
  br i1 %4, label %8, label %5

5:                                                ; preds = %1
  %6 = load i64, ptr %2, align 8, !tbaa !52
  %7 = call noundef ptr @_ZN4absl12lts_202407226Status12RepToPointerEm(i64 noundef %6)
  call void @_ZNK4absl12lts_2024072215status_internal9StatusRep5UnrefEv(ptr noundef nonnull align 8 dereferenceable(48) %7)
  br label %8

8:                                                ; preds = %5, %1
  ret void
}

; Function Attrs: inlinehint mustprogress nounwind uwtable
define linkonce_odr void @_ZN4absl12lts_202407226StatusD2Ev(ptr noundef nonnull align 8 dereferenceable(8) %0) unnamed_addr #11 comdat align 2 personality ptr @__gxx_personality_v0 {
  %2 = alloca ptr, align 8
  store ptr %0, ptr %2, align 8, !tbaa !274
  %3 = load ptr, ptr %2, align 8
  %4 = getelementptr inbounds nuw %"class.absl::lts_20240722::Status", ptr %3, i32 0, i32 0
  %5 = load i64, ptr %4, align 8, !tbaa !276
  invoke void @_ZN4absl12lts_202407226Status5UnrefEm(i64 noundef %5)
          to label %6 unwind label %7

6:                                                ; preds = %1
  ret void

7:                                                ; preds = %1
  %8 = landingpad { ptr, i32 }
          catch ptr null
  %9 = extractvalue { ptr, i32 } %8, 0
  call void @__clang_call_terminate(ptr %9) #25
  unreachable
}

; Function Attrs: inlinehint mustprogress nounwind uwtable
define internal void @_ZN9grpc_core12_GLOBAL__N_110RoundRobin22RoundRobinEndpointListD2Ev(ptr noundef nonnull align 8 dereferenceable(128) %0) unnamed_addr #11 align 2 {
  %2 = alloca ptr, align 8
  store ptr %0, ptr %2, align 8, !tbaa !152
  %3 = load ptr, ptr %2, align 8
  %4 = getelementptr inbounds nuw %"class.grpc_core::(anonymous namespace)::RoundRobin::RoundRobinEndpointList", ptr %3, i32 0, i32 4
  call void @_ZN4absl12lts_202407226StatusD2Ev(ptr noundef nonnull align 8 dereferenceable(8) %4) #3
  call void @_ZN9grpc_core12EndpointListD2Ev(ptr noundef nonnull align 8 dereferenceable(96) %3) #3
  ret void
}